Certificate:
    Data:
        Version: 3 (0x2)
        Serial Number: 1 (0x1)
        Signature Algorithm: sha1WithRSAEncryption
        Issuer: C=US, ST=Dummy, L=Dummy, O=Dummy, OU=Dummy, CN=Dummy CA
        Validity
            Not Before: Oct 21 19:24:23 2013 GMT
            Not After : Sep 25 19:24:23 2018 GMT
        Subject: C=US, ST=Dummy, L=Dummy, O=Dummy, OU=Dummy, CN=Dummy CA
        Subject Public Key Info:
            Public Key Algorithm: rsaEncryption
                Public-Key: (2048 bit)
                Modulus:
                    00:c2:d1:d0:31:dc:93:c3:ad:88:0d:f8:93:fe:cc:
                    aa:04:1d:85:aa:c3:bb:bd:87:04:f0:42:67:14:34:
                    4a:56:94:2b:bf:d0:6b:72:30:38:39:35:20:8c:e3:
                    7e:65:82:b0:7e:3e:1d:f1:18:82:b7:d6:19:59:43:
                    ed:81:be:eb:51:44:fc:77:9e:37:ad:e1:a0:18:b9:
                    4b:59:79:90:81:a4:e4:52:2f:fc:e2:ff:98:10:5e:
                    d5:13:9a:16:62:1a:e0:cb:ab:1d:ae:da:d1:40:d4:
                    97:b1:e6:e3:f1:97:2c:2a:52:73:ab:d0:a2:15:f3:
                    1e:9a:b0:67:d0:62:67:4b:74:b0:bb:8f:ef:9e:32:
                    6a:4c:27:4e:82:7c:16:66:ce:06:e9:a3:d9:36:4f:
                    f4:3e:bc:80:00:93:c1:ca:31:cf:03:68:d4:e5:8b:
                    38:45:b6:1b:35:b0:c0:e9:4a:62:75:83:01:aa:b9:
                    c1:0b:c0:ee:97:c0:73:23:cd:34:ec:bb:3c:95:35:
                    c8:2d:69:ff:86:d8:1f:c8:04:7e:18:de:62:c2:4b:
                    37:c6:aa:8e:03:bf:2b:0d:97:20:2a:75:47:ec:98:
                    29:3c:64:52:ef:91:8b:63:0f:6a:f8:c2:9d:08:6a:
                    61:68:6f:64:9a:56:b2:0a:bc:7b:59:3d:7f:fd:ba:
                    12:4b
                Exponent: 65537 (0x10001)
        X509v3 extensions:
            X509v3 Subject Key Identifier: 
                5B:BB:3E:8E:2D:90:AD:AE:58:07:FF:53:00:18:98:FF:44:84:4C:BA
            X509v3 Authority Key Identifier: 
                keyid:5B:BB:3E:8E:2D:90:AD:AE:58:07:FF:53:00:18:98:FF:44:84:4C:BA

            X509v3 Basic Constraints: 
                CA:TRUE
    Signature Algorithm: sha1WithRSAEncryption
        3c:89:0b:bd:49:10:a6:1a:f6:2a:4b:5f:02:3d:ee:f3:19:4f:
        c9:10:79:9c:01:ef:88:22:3d:03:5b:1a:14:46:b6:7f:9b:af:
        a5:99:1a:d4:d4:9b:d6:6f:c1:fe:96:8f:9a:9e:47:42:b4:ee:
        21:56:6a:c4:92:38:6c:81:cd:8e:31:43:86:7c:97:15:90:80:
        d8:21:f0:46:be:2a:2f:f2:96:07:85:74:a8:fa:1b:78:8f:80:
        c1:5e:bc:d9:06:c2:33:9e:8e:f9:08:dd:43:7b:6f:5a:22:67:
        46:78:5d:fb:4a:4e:c2:c6:29:94:17:53:a6:c5:a9:d6:67:06:
        4f:07:ef:da:5b:45:21:83:cb:31:b2:dc:dc:ac:13:19:98:3f:
        98:5f:2c:b4:b4:da:d4:43:d7:a9:1a:6e:b6:cf:be:85:a8:80:
        1f:8a:c1:95:8a:83:a4:af:d2:23:4a:b6:18:87:4e:28:31:36:
        03:2c:bf:e4:9e:b6:75:fd:c4:68:ed:4d:d5:a8:fa:a5:81:13:
        17:1c:43:67:02:1c:d0:e6:00:6e:8b:13:e6:60:1f:ba:40:78:
        93:25:ca:59:5a:71:cc:58:d4:52:63:1d:b3:3c:ce:37:f1:89:
        78:fc:13:fa:b3:ea:22:af:17:68:8a:a1:59:57:f5:1a:49:6e:
        b9:f6:5f:b3
-----BEGIN CERTIFICATE-----
MIIDizCCAnOgAwIBAgIBATANBgkqhkiG9w0BAQUFADBgMQswCQYDVQQGEwJVUzEO
MAwGA1UECAwFRHVtbXkxDjAMBgNVBAcMBUR1bW15MQ4wDAYDVQQKDAVEdW1teTEO
MAwGA1UECwwFRHVtbXkxETAPBgNVBAMMCER1bW15IENBMB4XDTEzMTAyMTE5MjQy
M1oXDTE4MDkyNTE5MjQyM1owYDELMAkGA1UEBhMCVVMxDjAMBgNVBAgMBUR1bW15
MQ4wDAYDVQQHDAVEdW1teTEOMAwGA1UECgwFRHVtbXkxDjAMBgNVBAsMBUR1bW15
MREwDwYDVQQDDAhEdW1teSBDQTCCASIwDQYJKoZIhvcNAQEBBQADggEPADCCAQoC
ggEBAMLR0DHck8OtiA34k/7MqgQdharDu72HBPBCZxQ0SlaUK7/Qa3IwODk1IIzj
fmWCsH4+HfEYgrfWGVlD7YG+61FE/HeeN63hoBi5S1l5kIGk5FIv/OL/mBBe1ROa
FmIa4MurHa7a0UDUl7Hm4/GXLCpSc6vQohXzHpqwZ9BiZ0t0sLuP754yakwnToJ8
FmbOBumj2TZP9D68gACTwcoxzwNo1OWLOEW2GzWwwOlKYnWDAaq5wQvA7pfAcyPN
NOy7PJU1yC1p/4bYH8gEfhjeYsJLN8aqjgO/Kw2XICp1R+yYKTxkUu+Ri2MPavjC
nQhqYWhvZJpWsgq8e1k9f/26EksCAwEAAaNQME4wHQYDVR0OBBYEFFu7Po4tkK2u
WAf/UwAYmP9EhEy6MB8GA1UdIwQYMBaAFFu7Po4tkK2uWAf/UwAYmP9EhEy6MAwG
A1UdEwQFMAMBAf8wDQYJKoZIhvcNAQEFBQADggEBADyJC71JEKYa9ipLXwI97vMZ
T8kQeZwB74giPQNbGhRGtn+br6WZGtTUm9Zvwf6Wj5qeR0K07iFWasSSOGyBzY4x
Q4Z8lxWQgNgh8Ea+Ki/ylgeFdKj6G3iPgMFevNkGwjOejvkI3UN7b1oiZ0Z4XftK
TsLGKZQXU6bFqdZnBk8H79pbRSGDyzGy3NysExmYP5hfLLS02tRD16kabrbPvoWo
gB+KwZWKg6Sv0iNKthiHTigxNgMsv+SetnX9xGjtTdWo+qWBExccQ2cCHNDmAG6L
E+ZgH7pAeJMlyllaccxY1FJjHbM8zjfxiXj8E/qz6iKvF2iKoVlX9RpJbrn2X7M=
-----END CERTIFICATE-----
Certificate:
    Data:
        Version: 3 (0x2)
        Serial Number: 1 (0x1)
        Signature Algorithm: sha1WithRSAEncryption
        Issuer: C=US, ST=Dummy, L=Dummy, O=Dummy, OU=Dummy, CN=Dummy CA
        Validity
            Not Before: Oct 21 19:24:23 2013 GMT
            Not After : Sep 25 19:24:23 2018 GMT
        Subject: C=US, ST=Dummy, L=Dummy, O=Dummy, OU=Dummy, CN=Dummy Intermediate CA
        Subject Public Key Info:
            Public Key Algorithm: rsaEncryption
                Public-Key: (2048 bit)
                Modulus:
                    00:cf:7d:92:07:a5:56:1b:6f:4c:f3:34:c2:12:c2:
                    34:62:3b:69:aa:a6:0c:c6:70:5b:93:bc:dc:41:98:
                    61:87:61:36:be:8c:08:dd:31:a9:33:76:d3:66:3e:
                    77:60:1e:ed:9e:e1:e5:ef:bf:17:91:ac:0c:63:07:
                    01:ab:30:67:bc:16:a6:2f:79:f0:61:8c:79:2d:3c:
                    98:60:74:61:c4:5f:60:44:85:71:92:9d:cc:7b:14:
                    39:74:aa:44:f9:9f:ae:f6:c7:8d:c3:01:47:53:24:
                    ac:7b:a2:f6:c5:7d:65:37:40:0b:20:c8:d4:14:cd:
                    f8:f4:57:ea:23:70:f4:e3:99:2b:1c:9a:67:37:ed:
                    93:c7:a7:7c:86:90:f7:ae:fc:6f:4b:18:dc:d5:eb:
                    f3:68:33:d6:78:14:d1:ca:a7:06:7d:75:34:f6:c0:
                    d4:15:1b:21:2b:78:d9:76:24:a5:f0:c6:13:c8:1e:
                    4a:c8:ca:77:34:4e:f8:fa:49:5f:6c:e1:66:a8:65:
                    f0:8c:bc:44:20:03:ac:af:4a:61:a5:39:48:51:1b:
                    cb:d8:22:29:60:27:47:42:fc:bf:6a:77:65:58:09:
                    20:82:1c:d1:16:5e:5a:18:ea:99:61:8e:93:94:27:
                    30:20:dd:44:03:50:43:b4:ec:a3:0f:ee:91:69:d7:
                    b1:5b
                Exponent: 65537 (0x10001)
        X509v3 extensions:
            X509v3 Basic Constraints: 
                CA:TRUE
    Signature Algorithm: sha1WithRSAEncryption
        39:a0:8d:2f:68:22:1d:4f:3e:db:f1:9b:29:20:77:23:f8:21:
        34:17:84:00:88:a8:3e:a1:4d:84:94:90:96:02:e6:6a:b4:20:
        51:a0:66:20:38:05:18:aa:2a:3e:9a:50:60:af:eb:4a:70:ac:
        9b:59:30:d5:17:14:9c:b4:91:6a:1b:c3:45:8a:dd:cd:2f:c6:
        c5:8c:fe:d0:76:20:63:a4:97:db:e3:2a:8e:c1:3d:c8:b6:06:
        2d:49:7a:d9:8a:de:16:ea:5d:5f:fb:41:79:0d:8f:d2:23:00:
        d9:b9:6f:93:45:bb:74:17:ea:6b:72:13:01:86:fe:8d:7e:8f:
        27:71:76:a9:37:6d:6c:90:5a:3f:d9:6d:4d:6c:a4:64:7a:ea:
        82:c9:87:ee:6a:d0:6e:30:05:7f:19:1d:19:31:a9:9a:ce:21:
        84:da:47:c7:a0:66:12:e8:7e:57:69:5d:9c:24:e5:46:3c:bf:
        37:f6:88:c3:b1:42:de:3b:81:ed:f5:ae:e2:23:9e:c2:89:a1:
        e7:5c:1d:49:0f:ed:ae:55:60:0e:4e:4c:e9:8a:64:e6:ae:c5:
        d1:99:a7:70:4c:7e:5d:53:ac:88:2c:0f:0b:21:94:1a:32:f9:
        a1:cc:1e:67:98:6b:b6:e9:b1:b9:4b:46:02:b1:65:c9:49:83:
        80:bd:b9:70
-----BEGIN CERTIFICATE-----
MIIDWDCCAkCgAwIBAgIBATANBgkqhkiG9w0BAQUFADBgMQswCQYDVQQGEwJVUzEO
MAwGA1UECAwFRHVtbXkxDjAMBgNVBAcMBUR1bW15MQ4wDAYDVQQKDAVEdW1teTEO
MAwGA1UECwwFRHVtbXkxETAPBgNVBAMMCER1bW15IENBMB4XDTEzMTAyMTE5MjQy
M1oXDTE4MDkyNTE5MjQyM1owbTELMAkGA1UEBhMCVVMxDjAMBgNVBAgMBUR1bW15
MQ4wDAYDVQQHDAVEdW1teTEOMAwGA1UECgwFRHVtbXkxDjAMBgNVBAsMBUR1bW15
MR4wHAYDVQQDDBVEdW1teSBJbnRlcm1lZGlhdGUgQ0EwggEiMA0GCSqGSIb3DQEB
AQUAA4IBDwAwggEKAoIBAQDPfZIHpVYbb0zzNMISwjRiO2mqpgzGcFuTvNxBmGGH
YTa+jAjdMakzdtNmPndgHu2e4eXvvxeRrAxjBwGrMGe8FqYvefBhjHktPJhgdGHE
X2BEhXGSncx7FDl0qkT5n672x43DAUdTJKx7ovbFfWU3QAsgyNQUzfj0V+ojcPTj
mSscmmc37ZPHp3yGkPeu/G9LGNzV6/NoM9Z4FNHKpwZ9dTT2wNQVGyEreNl2JKXw
xhPIHkrIync0Tvj6SV9s4WaoZfCMvEQgA6yvSmGlOUhRG8vYIilgJ0dC/L9qd2VY
CSCCHNEWXloY6plhjpOUJzAg3UQDUEO07KMP7pFp17FbAgMBAAGjEDAOMAwGA1Ud
EwQFMAMBAf8wDQYJKoZIhvcNAQEFBQADggEBADmgjS9oIh1PPtvxmykgdyP4ITQX
hACIqD6hTYSUkJYC5mq0IFGgZiA4BRiqKj6aUGCv60pwrJtZMNUXFJy0kWobw0WK
3c0vxsWM/tB2IGOkl9vjKo7BPci2Bi1JetmK3hbqXV/7QXkNj9IjANm5b5NFu3QX
6mtyEwGG/o1+jydxdqk3bWyQWj/ZbU1spGR66oLJh+5q0G4wBX8ZHRkxqZrOIYTa
R8egZhLofldpXZwk5UY8vzf2iMOxQt47ge31ruIjnsKJoedcHUkP7a5VYA5OTOmK
ZOauxdGZp3BMfl1TrIgsDwshlBoy+aHMHmeYa7bpsblLRgKxZclJg4C9uXA=
-----END CERTIFICATE-----
